target datalayout = "e-m:e-p270:32:32-p271:32:32-p272:64:64-i64:64-i128:128-f80:128-n8:16:32:64-S128"
target triple = "x86_64-unknown-linux-gnu"

@.str = private unnamed_addr constant [19 x i8] c"fcntl(F_GETFL): %s\00", align 1
@.str.1 = private unnamed_addr constant [30 x i8] c"fcntl(F_SETFL,O_NONBLOCK): %s\00", align 1

; Function Attrs: nounwind uwtable
define dso_local i32 @anetSetBlock(ptr noundef %err, i32 noundef %fd, i32 noundef %non_block) #0 {
entry:
  %retval = alloca i32, align 4
  %err.addr = alloca ptr, align 8
  %fd.addr = alloca i32, align 4
  %non_block.addr = alloca i32, align 4
  %flags = alloca i32, align 4
  store ptr %err, ptr %err.addr, align 8
  store i32 %fd, ptr %fd.addr, align 4
  store i32 %non_block, ptr %non_block.addr, align 4
  %0 = load i32, ptr %fd.addr, align 4
  %call = call i32 (i32, i32, ...) @fcntl64(i32 noundef %0, i32 noundef 3)
  store i32 %call, ptr %flags, align 4
  %cmp = icmp eq i32 %call, -1
  br i1 %cmp, label %if.then, label %if.end

if.then:                                          ; preds = %entry
  %1 = load ptr, ptr %err.addr, align 8
  %call1 = call ptr @__errno_location() #8
  %2 = load i32, ptr %call1, align 4
  %call2 = call ptr @strerror(i32 noundef %2) #7
  call void (ptr, ptr, ...) @anetSetError(ptr noundef %1, ptr noundef @.str, ptr noundef %call2)
  store i32 -1, ptr %retval, align 4
  br label %return

if.end:                                           ; preds = %entry
  %3 = load i32, ptr %flags, align 4
  %and = and i32 %3, 2048
  %tobool = icmp ne i32 %and, 0
  %lnot = xor i1 %tobool, true
  %lnot3 = xor i1 %lnot, true
  %lnot.ext = zext i1 %lnot3 to i32
  %4 = load i32, ptr %non_block.addr, align 4
  %tobool4 = icmp ne i32 %4, 0
  %lnot5 = xor i1 %tobool4, true
  %lnot7 = xor i1 %lnot5, true
  %lnot.ext8 = zext i1 %lnot7 to i32
  %cmp9 = icmp eq i32 %lnot.ext, %lnot.ext8
  br i1 %cmp9, label %if.then10, label %if.end11

if.then10:                                        ; preds = %if.end
  store i32 0, ptr %retval, align 4
  br label %return

if.end11:                                         ; preds = %if.end
  %5 = load i32, ptr %non_block.addr, align 4
  %tobool12 = icmp ne i32 %5, 0
  br i1 %tobool12, label %if.then13, label %if.else

if.then13:                                        ; preds = %if.end11
  %6 = load i32, ptr %flags, align 4
  %or = or i32 %6, 2048
  store i32 %or, ptr %flags, align 4
  br label %if.end15

if.else:                                          ; preds = %if.end11
  %7 = load i32, ptr %flags, align 4
  %and14 = and i32 %7, -2049
  store i32 %and14, ptr %flags, align 4
  br label %if.end15

if.end15:                                         ; preds = %if.else, %if.then13
  %8 = load i32, ptr %fd.addr, align 4
  %9 = load i32, ptr %flags, align 4
  %call16 = call i32 (i32, i32, ...) @fcntl64(i32 noundef %8, i32 noundef 4, i32 noundef %9)
  %cmp17 = icmp eq i32 %call16, -1
  br i1 %cmp17, label %if.then18, label %if.end21

if.then18:                                        ; preds = %if.end15
  %10 = load ptr, ptr %err.addr, align 8
  %call19 = call ptr @__errno_location() #8
  %11 = load i32, ptr %call19, align 4
  %call20 = call ptr @strerror(i32 noundef %11) #7
  call void (ptr, ptr, ...) @anetSetError(ptr noundef %10, ptr noundef @.str.1, ptr noundef %call20)
  store i32 -1, ptr %retval, align 4
  br label %return

if.end21:                                         ; preds = %if.end15
  store i32 0, ptr %retval, align 4
  br label %return

return:                                           ; preds = %if.end21, %if.then18, %if.then10, %if.then
  %12 = load i32, ptr %retval, align 4
  ret i32 %12
}

; Function Attrs: nounwind uwtable
define dso_local i32 @anetNonBlock(ptr noundef %err, i32 noundef %fd) #0 {
entry:
  %err.addr = alloca ptr, align 8
  %fd.addr = alloca i32, align 4
  store ptr %err, ptr %err.addr, align 8
  store i32 %fd, ptr %fd.addr, align 4
  %0 = load ptr, ptr %err.addr, align 8
  %1 = load i32, ptr %fd.addr, align 4
  %call = call i32 @anetSetBlock(ptr noundef %0, i32 noundef %1, i32 noundef 1)
  ret i32 %call
}